target datalayout = "e-m:e-p270:32:32-p271:32:32-p272:64:64-i64:64-i128:128-f80:128-n8:16:32:64-S128"
target triple = "x86_64-pc-linux-gnu"

%struct.RelationData = type { %struct.RelFileLocator, ptr, i32, i32, i8, i8, i8, i8, i8, i32, i32, i32, i32, ptr, ptr, i32, %struct.LockInfoData, ptr, ptr, ptr, ptr, ptr, i8, ptr, ptr, ptr, ptr, ptr, ptr, i32, ptr, i8, ptr, ptr, i32, i8, i32, ptr, i8, ptr, ptr, ptr, ptr, ptr, ptr, ptr, i32, ptr, ptr, ptr, ptr, ptr, ptr, ptr, ptr, ptr, ptr, ptr, ptr, ptr, ptr, ptr, ptr, ptr, ptr, ptr, i32, i8, ptr }
%struct.RelFileLocator = type { i32, i32, i32 }
%struct.LockInfoData = type { %struct.LockRelId }
%struct.LockRelId = type { i32, i32 }
%struct.FormData_pg_class = type { i32, %struct.nameData, i32, i32, i32, i32, i32, i32, i32, i32, float, i32, i32, i8, i8, i8, i8, i16, i16, i8, i8, i8, i8, i8, i8, i8, i8, i32, i32, i32 }
%struct.nameData = type { [64 x i8] }
%struct.IndexAmRoutine = type { i32, i16, i16, i16, i8, i8, i8, i8, i8, i8, i8, i8, i8, i8, i8, i8, i8, i8, i8, i8, i8, i32, ptr, ptr, ptr, ptr, ptr, ptr, ptr, ptr, ptr, ptr, ptr, ptr, ptr, ptr, ptr, ptr, ptr, ptr, ptr, ptr, ptr, ptr, ptr, ptr, ptr, ptr }
%struct.IndexScanDescData = type { ptr, ptr, ptr, i32, i32, ptr, ptr, i8, i8, i8, i8, i8, ptr, ptr, ptr, ptr, ptr, %struct.ItemPointerData, i8, ptr, i8, ptr, ptr, i8, ptr }
%struct.ItemPointerData = type { %struct.BlockIdData, i16 }
%struct.BlockIdData = type { i16, i16 }

@.str.1 = private unnamed_addr constant [10 x i8] c"indexam.c\00", align 1
@.str.2 = private unnamed_addr constant [44 x i8] c"function \22%s\22 is not defined for index \22%s\22\00", align 1
@.str.6 = private unnamed_addr constant [10 x i8] c"ammarkpos\00", align 1
@__func__.index_markpos = private unnamed_addr constant [14 x i8] c"index_markpos\00", align 1

; Function Attrs: nounwind uwtable
define dso_local void @index_markpos(ptr noundef %0) #0 {
  %2 = alloca ptr, align 8
  store ptr %0, ptr %2, align 8
  br label %3

3:                                                ; preds = %1
  %4 = load ptr, ptr %2, align 8
  %5 = getelementptr inbounds nuw %struct.IndexScanDescData, ptr %4, i32 0, i32 1
  %6 = load ptr, ptr %5, align 8
  %7 = getelementptr inbounds nuw %struct.RelationData, ptr %6, i32 0, i32 51
  %8 = load ptr, ptr %7, align 8
  %9 = getelementptr inbounds nuw %struct.IndexAmRoutine, ptr %8, i32 0, i32 41
  %10 = load ptr, ptr %9, align 8
  %11 = icmp eq ptr %10, null
  br i1 %11, label %12, label %30

12:                                               ; preds = %3
  br label %13

13:                                               ; preds = %12
  br i1 true, label %14, label %16

14:                                               ; preds = %13
  %15 = call zeroext i1 @errstart_cold(i32 noundef 21, ptr noundef null) #8
  br i1 %15, label %18, label %28

16:                                               ; preds = %13
  %17 = call zeroext i1 @errstart(i32 noundef 21, ptr noundef null)
  br i1 %17, label %18, label %28

18:                                               ; preds = %16, %14
  %19 = load ptr, ptr %2, align 8
  %20 = getelementptr inbounds nuw %struct.IndexScanDescData, ptr %19, i32 0, i32 1
  %21 = load ptr, ptr %20, align 8
  %22 = getelementptr inbounds nuw %struct.RelationData, ptr %21, i32 0, i32 13
  %23 = load ptr, ptr %22, align 8
  %24 = getelementptr inbounds nuw %struct.FormData_pg_class, ptr %23, i32 0, i32 1
  %25 = getelementptr inbounds nuw %struct.nameData, ptr %24, i32 0, i32 0
  %26 = getelementptr inbounds [64 x i8], ptr %25, i64 0, i64 0
  %27 = call i32 (ptr, ...) @errmsg_internal(ptr noundef @.str.2, ptr noundef @.str.6, ptr noundef %26)
  call void @errfinish(ptr noundef @.str.1, i32 noundef 411, ptr noundef @__func__.index_markpos)
  br label %28

28:                                               ; preds = %18, %16, %14
  unreachable

29:                                               ; No predecessors!
  br label %30

30:                                               ; preds = %29, %3
  br label %31

31:                                               ; preds = %30
  %32 = load ptr, ptr %2, align 8
  %33 = getelementptr inbounds nuw %struct.IndexScanDescData, ptr %32, i32 0, i32 1
  %34 = load ptr, ptr %33, align 8
  %35 = getelementptr inbounds nuw %struct.RelationData, ptr %34, i32 0, i32 51
  %36 = load ptr, ptr %35, align 8
  %37 = getelementptr inbounds nuw %struct.IndexAmRoutine, ptr %36, i32 0, i32 41
  %38 = load ptr, ptr %37, align 8
  %39 = load ptr, ptr %2, align 8
  call void %38(ptr noundef %39)
  ret void
}